; Function Attrs: mustprogress uwtable
define noundef zeroext i1 @_ZNK6icu_7712StringSearcheqERKNS_14SearchIteratorE(ptr noundef nonnull align 8 dereferenceable(160) %0, ptr noundef nonnull align 8 dereferenceable(88) %1) unnamed_addr #1 align 2 {
  %3 = icmp eq ptr %0, %1
  br i1 %3, label %_ZNK6icu_7713UnicodeStringeqERKS0_.exit.thread, label %4

4:                                                ; preds = %2
  %5 = tail call noundef zeroext i1 @_ZNK6icu_7714SearchIteratoreqERKS0_(ptr noundef nonnull align 8 dereferenceable(88) %0, ptr noundef nonnull align 8 dereferenceable(88) %1)
  %6 = load ptr, ptr %1, align 8
  %.not = icmp eq ptr %6, getelementptr inbounds nuw inrange(-16, 112) (i8, ptr @_ZTVN6icu_7712StringSearchE, i64 16)
  %or.cond = select i1 %5, i1 %.not, i1 false
  br i1 %or.cond, label %7, label %_ZNK6icu_7713UnicodeStringeqERKS0_.exit.thread

7:                                                ; preds = %4
  %8 = getelementptr inbounds nuw i8, ptr %0, i64 88
  %9 = getelementptr inbounds nuw i8, ptr %0, i64 96
  %10 = load i16, ptr %9, align 8, !tbaa !19
  %11 = and i16 %10, 1
  %.not.i = icmp eq i16 %11, 0
  br i1 %.not.i, label %16, label %12

12:                                               ; preds = %7
  %13 = getelementptr inbounds nuw i8, ptr %1, i64 96
  %14 = load i16, ptr %13, align 8, !tbaa !19
  %15 = and i16 %14, 1
  %.not12 = icmp eq i16 %15, 0
  br i1 %.not12, label %_ZNK6icu_7713UnicodeStringeqERKS0_.exit.thread, label %39

16:                                               ; preds = %7
  %17 = icmp slt i16 %10, 0
  %18 = ashr i16 %10, 5
  %19 = sext i16 %18 to i32
  %20 = getelementptr inbounds nuw i8, ptr %0, i64 100
  %21 = load i32, ptr %20, align 4
  %22 = select i1 %17, i32 %21, i32 %19
  %23 = getelementptr inbounds nuw i8, ptr %1, i64 96
  %24 = load i16, ptr %23, align 8, !tbaa !19
  %25 = icmp slt i16 %24, 0
  %26 = ashr i16 %24, 5
  %27 = sext i16 %26 to i32
  %28 = getelementptr inbounds nuw i8, ptr %1, i64 100
  %29 = load i32, ptr %28, align 4
  %30 = select i1 %25, i32 %29, i32 %27
  %31 = and i16 %24, 1
  %.not9.i = icmp eq i16 %31, 0
  %32 = icmp eq i32 %22, %30
  %or.cond.i = and i1 %.not9.i, %32
  br i1 %or.cond.i, label %_ZNK6icu_7713UnicodeStringeqERKS0_.exit, label %_ZNK6icu_7713UnicodeStringeqERKS0_.exit.thread

_ZNK6icu_7713UnicodeStringeqERKS0_.exit:          ; preds = %16
  %33 = and i16 %24, 2
  %.not.i.i.i = icmp eq i16 %33, 0
  %34 = getelementptr inbounds nuw i8, ptr %1, i64 98
  %35 = getelementptr inbounds nuw i8, ptr %1, i64 112
  %36 = load ptr, ptr %35, align 8
  %37 = select i1 %.not.i.i.i, ptr %36, ptr %34
  %38 = tail call noundef signext i8 @_ZNK6icu_7713UnicodeString8doEqualsEPKDsi(ptr noundef nonnull align 8 dereferenceable(64) %8, ptr noundef %37, i32 noundef %22)
  %.not13 = icmp eq i8 %38, 0
  br i1 %.not13, label %_ZNK6icu_7713UnicodeStringeqERKS0_.exit.thread, label %39

39:                                               ; preds = %12, %_ZNK6icu_7713UnicodeStringeqERKS0_.exit
  %40 = getelementptr inbounds nuw i8, ptr %0, i64 152
  %41 = load ptr, ptr %40, align 8, !tbaa !9
  %42 = getelementptr inbounds nuw i8, ptr %41, i64 3128
  %43 = load ptr, ptr %42, align 8, !tbaa !37
  %44 = getelementptr inbounds nuw i8, ptr %1, i64 152
  %45 = load ptr, ptr %44, align 8, !tbaa !9
  %46 = getelementptr inbounds nuw i8, ptr %45, i64 3128
  %47 = load ptr, ptr %46, align 8, !tbaa !37
  %48 = icmp eq ptr %43, %47
  br label %_ZNK6icu_7713UnicodeStringeqERKS0_.exit.thread

_ZNK6icu_7713UnicodeStringeqERKS0_.exit.thread:   ; preds = %16, %12, %4, %39, %_ZNK6icu_7713UnicodeStringeqERKS0_.exit, %2
  %.0 = phi i1 [ true, %2 ], [ false, %_ZNK6icu_7713UnicodeStringeqERKS0_.exit ], [ %48, %39 ], [ false, %4 ], [ false, %12 ], [ false, %16 ]
  ret i1 %.0
}